target datalayout = "e-m:e-p270:32:32-p271:32:32-p272:64:64-i64:64-i128:128-f80:128-n8:16:32:64-S128"
target triple = "x86_64-pc-linux-gnu"

%struct.dictType = type { ptr, ptr, ptr, ptr, ptr, ptr, ptr, ptr, ptr, ptr, ptr, i8, ptr, ptr, ptr }
%struct.anon.7 = type { i64, ptr, ptr }

@hashDictType = external global %struct.dictType, align 8

; Function Attrs: nounwind uwtable
define internal i32 @_ziplistPairsEntryConvertAndValidate(ptr noundef %0, i32 noundef %1, ptr noundef %2) #0 {
  %4 = alloca i32, align 4
  %5 = alloca ptr, align 8
  %6 = alloca i32, align 4
  %7 = alloca ptr, align 8
  %8 = alloca ptr, align 8
  %9 = alloca i32, align 4
  %10 = alloca i64, align 8
  %11 = alloca ptr, align 8
  %12 = alloca i32, align 4
  %13 = alloca ptr, align 8
  store ptr %0, ptr %5, align 8, !tbaa !9
  store i32 %1, ptr %6, align 4, !tbaa !5
  store ptr %2, ptr %7, align 8, !tbaa !55
  call void @llvm.lifetime.start.p0(i64 8, ptr %8) #15
  call void @llvm.lifetime.start.p0(i64 4, ptr %9) #15
  call void @llvm.lifetime.start.p0(i64 8, ptr %10) #15
  call void @llvm.lifetime.start.p0(i64 8, ptr %11) #15
  %14 = load ptr, ptr %7, align 8, !tbaa !55
  store ptr %14, ptr %11, align 8, !tbaa !55
  %15 = load ptr, ptr %11, align 8, !tbaa !55
  %16 = getelementptr inbounds nuw %struct.anon.7, ptr %15, i32 0, i32 1
  %17 = load ptr, ptr %16, align 8, !tbaa !224
  %18 = icmp eq ptr %17, null
  br i1 %18, label %19, label %30

19:                                               ; preds = %3
  %20 = call ptr @dictCreate(ptr noundef @hashDictType)
  %21 = load ptr, ptr %11, align 8, !tbaa !55
  %22 = getelementptr inbounds nuw %struct.anon.7, ptr %21, i32 0, i32 1
  store ptr %20, ptr %22, align 8, !tbaa !224
  %23 = load ptr, ptr %11, align 8, !tbaa !55
  %24 = getelementptr inbounds nuw %struct.anon.7, ptr %23, i32 0, i32 1
  %25 = load ptr, ptr %24, align 8, !tbaa !224
  %26 = load i32, ptr %6, align 4, !tbaa !5
  %27 = udiv i32 %26, 2
  %28 = zext i32 %27 to i64
  %29 = call i32 @dictExpand(ptr noundef %25, i64 noundef %28)
  br label %30

30:                                               ; preds = %19, %3
  %31 = load ptr, ptr %5, align 8, !tbaa !9
  %32 = call i32 @ziplistGet(ptr noundef %31, ptr noundef %8, ptr noundef %9, ptr noundef %10)
  %33 = icmp ne i32 %32, 0
  br i1 %33, label %35, label %34

34:                                               ; preds = %30
  store i32 0, ptr %4, align 4
  store i32 1, ptr %12, align 4
  br label %95

35:                                               ; preds = %30
  %36 = load ptr, ptr %11, align 8, !tbaa !55
  %37 = getelementptr inbounds nuw %struct.anon.7, ptr %36, i32 0, i32 0
  %38 = load i64, ptr %37, align 8, !tbaa !222
  %39 = and i64 %38, 1
  %40 = icmp eq i64 %39, 0
  br i1 %40, label %41, label %66

41:                                               ; preds = %35
  call void @llvm.lifetime.start.p0(i64 8, ptr %13) #15
  %42 = load ptr, ptr %8, align 8, !tbaa !9
  %43 = icmp ne ptr %42, null
  br i1 %43, label %44, label %49

44:                                               ; preds = %41
  %45 = load ptr, ptr %8, align 8, !tbaa !9
  %46 = load i32, ptr %9, align 4, !tbaa !5
  %47 = zext i32 %46 to i64
  %48 = call ptr @sdsnewlen(ptr noundef %45, i64 noundef %47)
  br label %52

49:                                               ; preds = %41
  %50 = load i64, ptr %10, align 8, !tbaa !68
  %51 = call ptr @sdsfromlonglong(i64 noundef %50)
  br label %52

52:                                               ; preds = %49, %44
  %53 = phi ptr [ %48, %44 ], [ %51, %49 ]
  store ptr %53, ptr %13, align 8, !tbaa !9
  %54 = load ptr, ptr %11, align 8, !tbaa !55
  %55 = getelementptr inbounds nuw %struct.anon.7, ptr %54, i32 0, i32 1
  %56 = load ptr, ptr %55, align 8, !tbaa !224
  %57 = load ptr, ptr %13, align 8, !tbaa !9
  %58 = call i32 @dictAdd(ptr noundef %56, ptr noundef %57, ptr noundef null)
  %59 = icmp ne i32 %58, 0
  br i1 %59, label %60, label %62

60:                                               ; preds = %52
  %61 = load ptr, ptr %13, align 8, !tbaa !9
  call void @sdsfree(ptr noundef %61)
  store i32 0, ptr %4, align 4
  store i32 1, ptr %12, align 4
  br label %63

62:                                               ; preds = %52
  store i32 0, ptr %12, align 4
  br label %63

63:                                               ; preds = %62, %60
  call void @llvm.lifetime.end.p0(i64 8, ptr %13) #15
  %64 = load i32, ptr %12, align 4
  switch i32 %64, label %95 [
    i32 0, label %65
  ]

65:                                               ; preds = %63
  br label %66

66:                                               ; preds = %65, %35
  %67 = load ptr, ptr %8, align 8, !tbaa !9
  %68 = icmp ne ptr %67, null
  br i1 %68, label %69, label %80

69:                                               ; preds = %66
  %70 = load ptr, ptr %11, align 8, !tbaa !55
  %71 = getelementptr inbounds nuw %struct.anon.7, ptr %70, i32 0, i32 2
  %72 = load ptr, ptr %71, align 8, !tbaa !225
  %73 = load ptr, ptr %72, align 8, !tbaa !9
  %74 = load ptr, ptr %8, align 8, !tbaa !9
  %75 = load i32, ptr %9, align 4, !tbaa !5
  %76 = call ptr @lpAppend(ptr noundef %73, ptr noundef %74, i32 noundef %75)
  %77 = load ptr, ptr %11, align 8, !tbaa !55
  %78 = getelementptr inbounds nuw %struct.anon.7, ptr %77, i32 0, i32 2
  %79 = load ptr, ptr %78, align 8, !tbaa !225
  store ptr %76, ptr %79, align 8, !tbaa !9
  br label %90

80:                                               ; preds = %66
  %81 = load ptr, ptr %11, align 8, !tbaa !55
  %82 = getelementptr inbounds nuw %struct.anon.7, ptr %81, i32 0, i32 2
  %83 = load ptr, ptr %82, align 8, !tbaa !225
  %84 = load ptr, ptr %83, align 8, !tbaa !9
  %85 = load i64, ptr %10, align 8, !tbaa !68
  %86 = call ptr @lpAppendInteger(ptr noundef %84, i64 noundef %85)
  %87 = load ptr, ptr %11, align 8, !tbaa !55
  %88 = getelementptr inbounds nuw %struct.anon.7, ptr %87, i32 0, i32 2
  %89 = load ptr, ptr %88, align 8, !tbaa !225
  store ptr %86, ptr %89, align 8, !tbaa !9
  br label %90

90:                                               ; preds = %80, %69
  %91 = load ptr, ptr %11, align 8, !tbaa !55
  %92 = getelementptr inbounds nuw %struct.anon.7, ptr %91, i32 0, i32 0
  %93 = load i64, ptr %92, align 8, !tbaa !222
  %94 = add nsw i64 %93, 1
  store i64 %94, ptr %92, align 8, !tbaa !222
  store i32 1, ptr %4, align 4
  store i32 1, ptr %12, align 4
  br label %95

95:                                               ; preds = %90, %63, %34
  call void @llvm.lifetime.end.p0(i64 8, ptr %11) #15
  call void @llvm.lifetime.end.p0(i64 8, ptr %10) #15
  call void @llvm.lifetime.end.p0(i64 4, ptr %9) #15
  call void @llvm.lifetime.end.p0(i64 8, ptr %8) #15
  %96 = load i32, ptr %4, align 4
  ret i32 %96
}