; Function Attrs: nounwind uwtable
define internal range(i32 0, 2) i32 @_ziplistPairsEntryConvertAndValidate(ptr noundef %0, i32 noundef %1, ptr noundef captures(none) %2) #0 {
  %4 = alloca ptr, align 8
  %5 = alloca i32, align 4
  %6 = alloca i64, align 8
  call void @llvm.lifetime.start.p0(i64 8, ptr nonnull %4) #23
  call void @llvm.lifetime.start.p0(i64 4, ptr nonnull %5) #23
  call void @llvm.lifetime.start.p0(i64 8, ptr nonnull %6) #23
  %7 = getelementptr inbounds nuw i8, ptr %2, i64 8
  %8 = load ptr, ptr %7, align 8, !tbaa !183
  %9 = icmp eq ptr %8, null
  br i1 %9, label %10, label %15

10:                                               ; preds = %3
  %11 = tail call ptr @dictCreate(ptr noundef nonnull @hashDictType) #23
  store ptr %11, ptr %7, align 8, !tbaa !183
  %12 = lshr i32 %1, 1
  %13 = zext nneg i32 %12 to i64
  %14 = tail call i32 @dictExpand(ptr noundef %11, i64 noundef %13) #23
  br label %15

15:                                               ; preds = %10, %3
  %16 = call i32 @ziplistGet(ptr noundef %0, ptr noundef nonnull %4, ptr noundef nonnull %5, ptr noundef nonnull %6) #23
  %.not = icmp eq i32 %16, 0
  br i1 %.not, label %49, label %17

17:                                               ; preds = %15
  %18 = load i64, ptr %2, align 8, !tbaa !182
  %19 = and i64 %18, 1
  %20 = icmp eq i64 %19, 0
  br i1 %20, label %21, label %.critedge

21:                                               ; preds = %17
  %22 = load ptr, ptr %4, align 8, !tbaa !52
  %.not19 = icmp eq ptr %22, null
  br i1 %.not19, label %27, label %23

23:                                               ; preds = %21
  %24 = load i32, ptr %5, align 4, !tbaa !51
  %25 = zext i32 %24 to i64
  %26 = call ptr @sdsnewlen(ptr noundef nonnull %22, i64 noundef %25) #23
  br label %30

27:                                               ; preds = %21
  %28 = load i64, ptr %6, align 8, !tbaa !62
  %29 = call ptr @sdsfromlonglong(i64 noundef %28) #23
  br label %30

30:                                               ; preds = %27, %23
  %31 = phi ptr [ %26, %23 ], [ %29, %27 ]
  %32 = load ptr, ptr %7, align 8, !tbaa !183
  %33 = call i32 @dictAdd(ptr noundef %32, ptr noundef %31, ptr noundef null) #23
  %.not20 = icmp eq i32 %33, 0
  br i1 %.not20, label %.critedge, label %34

34:                                               ; preds = %30
  call void @sdsfree(ptr noundef %31) #23
  br label %49

.critedge:                                        ; preds = %30, %17
  %35 = load ptr, ptr %4, align 8, !tbaa !52
  %.not21 = icmp eq ptr %35, null
  %36 = getelementptr inbounds nuw i8, ptr %2, i64 16
  %37 = load ptr, ptr %36, align 8, !tbaa !180
  %38 = load ptr, ptr %37, align 8, !tbaa !52
  br i1 %.not21, label %42, label %39

39:                                               ; preds = %.critedge
  %40 = load i32, ptr %5, align 4, !tbaa !51
  %41 = call ptr @lpAppend(ptr noundef %38, ptr noundef nonnull %35, i32 noundef %40) #23
  br label %45

42:                                               ; preds = %.critedge
  %43 = load i64, ptr %6, align 8, !tbaa !62
  %44 = call ptr @lpAppendInteger(ptr noundef %38, i64 noundef %43) #23
  br label %45

45:                                               ; preds = %42, %39
  %.sink = phi ptr [ %44, %42 ], [ %41, %39 ]
  %46 = load ptr, ptr %36, align 8, !tbaa !180
  store ptr %.sink, ptr %46, align 8, !tbaa !52
  %47 = load i64, ptr %2, align 8, !tbaa !182
  %48 = add nsw i64 %47, 1
  store i64 %48, ptr %2, align 8, !tbaa !182
  br label %49

49:                                               ; preds = %34, %15, %45
  %.0 = phi i32 [ 1, %45 ], [ 0, %34 ], [ 0, %15 ]
  call void @llvm.lifetime.end.p0(i64 8, ptr nonnull %6) #23
  call void @llvm.lifetime.end.p0(i64 4, ptr nonnull %5) #23
  call void @llvm.lifetime.end.p0(i64 8, ptr nonnull %4) #23
  ret i32 %.0
}